target datalayout = "e-m:e-p270:32:32-p271:32:32-p272:64:64-i64:64-i128:128-f80:128-n8:16:32:64-S128"
target triple = "x86_64-pc-linux-gnu"

%struct.RasterS_t = type { ptr, ptr, ptr, %struct.SPPSampleModelS_t, ptr, i32, i32, i32, i32, i32, i32, i32, i32, i32, i32, i32, i32, i32, i32, i32, i32, i32 }
%struct.SPPSampleModelS_t = type { [32 x i32], [32 x i32], [32 x i32], i32, i32 }
%struct.JNINativeInterface_ = type { ptr, ptr, ptr, ptr, ptr, ptr, ptr, ptr, ptr, ptr, ptr, ptr, ptr, ptr, ptr, ptr, ptr, ptr, ptr, ptr, ptr, ptr, ptr, ptr, ptr, ptr, ptr, ptr, ptr, ptr, ptr, ptr, ptr, ptr, ptr, ptr, ptr, ptr, ptr, ptr, ptr, ptr, ptr, ptr, ptr, ptr, ptr, ptr, ptr, ptr, ptr, ptr, ptr, ptr, ptr, ptr, ptr, ptr, ptr, ptr, ptr, ptr, ptr, ptr, ptr, ptr, ptr, ptr, ptr, ptr, ptr, ptr, ptr, ptr, ptr, ptr, ptr, ptr, ptr, ptr, ptr, ptr, ptr, ptr, ptr, ptr, ptr, ptr, ptr, ptr, ptr, ptr, ptr, ptr, ptr, ptr, ptr, ptr, ptr, ptr, ptr, ptr, ptr, ptr, ptr, ptr, ptr, ptr, ptr, ptr, ptr, ptr, ptr, ptr, ptr, ptr, ptr, ptr, ptr, ptr, ptr, ptr, ptr, ptr, ptr, ptr, ptr, ptr, ptr, ptr, ptr, ptr, ptr, ptr, ptr, ptr, ptr, ptr, ptr, ptr, ptr, ptr, ptr, ptr, ptr, ptr, ptr, ptr, ptr, ptr, ptr, ptr, ptr, ptr, ptr, ptr, ptr, ptr, ptr, ptr, ptr, ptr, ptr, ptr, ptr, ptr, ptr, ptr, ptr, ptr, ptr, ptr, ptr, ptr, ptr, ptr, ptr, ptr, ptr, ptr, ptr, ptr, ptr, ptr, ptr, ptr, ptr, ptr, ptr, ptr, ptr, ptr, ptr, ptr, ptr, ptr, ptr, ptr, ptr, ptr, ptr, ptr, ptr, ptr, ptr, ptr, ptr, ptr, ptr, ptr, ptr, ptr, ptr, ptr, ptr, ptr, ptr, ptr, ptr, ptr, ptr, ptr, ptr, ptr, ptr, ptr, ptr, ptr, ptr, ptr, ptr, ptr, ptr, ptr, ptr }
%union.PixelData_t = type { ptr }

@g_RasterSampleModelID = external global ptr, align 8
@g_RasterDataBufferID = external global ptr, align 8
@.str.14 = private unnamed_addr constant [14 x i8] c"Out of Memory\00", align 1
@g_SMSetPixelsMID = external global ptr, align 8

; Function Attrs: nounwind uwtable
define hidden i32 @awt_setPixels(ptr noundef %0, ptr noundef %1, ptr noundef %2) #0 {
  %4 = alloca i32, align 4
  %5 = alloca ptr, align 8
  %6 = alloca ptr, align 8
  %7 = alloca ptr, align 8
  %8 = alloca i32, align 4
  %9 = alloca i32, align 4
  %10 = alloca i32, align 4
  %11 = alloca i32, align 4
  %12 = alloca i32, align 4
  %13 = alloca i32, align 4
  %14 = alloca ptr, align 8
  %15 = alloca i32, align 4
  %16 = alloca ptr, align 8
  %17 = alloca ptr, align 8
  %18 = alloca ptr, align 8
  %19 = alloca i32, align 4
  %20 = alloca %union.PixelData_t, align 8
  store ptr %0, ptr %5, align 8
  store ptr %1, ptr %6, align 8
  store ptr %2, ptr %7, align 8
  %21 = load ptr, ptr %6, align 8
  %22 = getelementptr inbounds %struct.RasterS_t, ptr %21, i32 0, i32 5
  %23 = load i32, ptr %22, align 8
  store i32 %23, ptr %8, align 4
  %24 = load ptr, ptr %6, align 8
  %25 = getelementptr inbounds %struct.RasterS_t, ptr %24, i32 0, i32 6
  %26 = load i32, ptr %25, align 4
  store i32 %26, ptr %9, align 4
  %27 = load ptr, ptr %6, align 8
  %28 = getelementptr inbounds %struct.RasterS_t, ptr %27, i32 0, i32 14
  %29 = load i32, ptr %28, align 4
  store i32 %29, ptr %10, align 4
  store i32 0, ptr %15, align 4
  store ptr null, ptr %16, align 8
  %30 = load ptr, ptr %7, align 8
  %31 = icmp eq ptr %30, null
  br i1 %31, label %32, label %33

32:                                               ; preds = %3
  store i32 -1, ptr %4, align 4
  br label %255

33:                                               ; preds = %3
  %34 = load ptr, ptr %6, align 8
  %35 = getelementptr inbounds %struct.RasterS_t, ptr %34, i32 0, i32 19
  %36 = load i32, ptr %35, align 8
  %37 = icmp ne i32 %36, 1
  br i1 %37, label %38, label %44

38:                                               ; preds = %33
  %39 = load ptr, ptr %6, align 8
  %40 = getelementptr inbounds %struct.RasterS_t, ptr %39, i32 0, i32 19
  %41 = load i32, ptr %40, align 8
  %42 = icmp ne i32 %41, 2
  br i1 %42, label %43, label %44

43:                                               ; preds = %38
  store i32 -1, ptr %4, align 4
  br label %255

44:                                               ; preds = %38, %33
  %45 = load ptr, ptr %7, align 8
  store ptr %45, ptr %20, align 8
  %46 = load i32, ptr %8, align 4
  %47 = icmp sgt i32 %46, 0
  br i1 %47, label %48, label %56

48:                                               ; preds = %44
  %49 = load i32, ptr %10, align 4
  %50 = icmp sge i32 %49, 0
  br i1 %50, label %51, label %56

51:                                               ; preds = %48
  %52 = load i32, ptr %8, align 4
  %53 = sdiv i32 2147483647, %52
  %54 = load i32, ptr %10, align 4
  %55 = icmp sgt i32 %53, %54
  br i1 %55, label %57, label %56

56:                                               ; preds = %51, %48, %44
  store i32 -1, ptr %4, align 4
  br label %255

57:                                               ; preds = %51
  %58 = load i32, ptr %8, align 4
  %59 = load i32, ptr %10, align 4
  %60 = mul nsw i32 %58, %59
  store i32 %60, ptr %19, align 4
  %61 = load i32, ptr %19, align 4
  %62 = icmp sgt i32 %61, 10240
  br i1 %62, label %63, label %64

63:                                               ; preds = %57
  br label %67

64:                                               ; preds = %57
  %65 = load i32, ptr %19, align 4
  %66 = sdiv i32 10240, %65
  br label %67

67:                                               ; preds = %64, %63
  %68 = phi i32 [ 1, %63 ], [ %66, %64 ]
  store i32 %68, ptr %13, align 4
  %69 = load i32, ptr %13, align 4
  %70 = load i32, ptr %9, align 4
  %71 = icmp sgt i32 %69, %70
  br i1 %71, label %72, label %74

72:                                               ; preds = %67
  %73 = load i32, ptr %9, align 4
  store i32 %73, ptr %13, align 4
  br label %74

74:                                               ; preds = %72, %67
  %75 = load i32, ptr %19, align 4
  %76 = icmp sgt i32 %75, 0
  br i1 %76, label %77, label %85

77:                                               ; preds = %74
  %78 = load i32, ptr %13, align 4
  %79 = icmp sge i32 %78, 0
  br i1 %79, label %80, label %85

80:                                               ; preds = %77
  %81 = load i32, ptr %19, align 4
  %82 = sdiv i32 2147483647, %81
  %83 = load i32, ptr %13, align 4
  %84 = icmp sgt i32 %82, %83
  br i1 %84, label %86, label %85

85:                                               ; preds = %80, %77, %74
  store i32 -1, ptr %4, align 4
  br label %255

86:                                               ; preds = %80
  %87 = load i32, ptr %13, align 4
  %88 = load i32, ptr %19, align 4
  %89 = mul nsw i32 %88, %87
  store i32 %89, ptr %19, align 4
  %90 = load ptr, ptr %5, align 8
  %91 = load ptr, ptr %90, align 8
  %92 = getelementptr inbounds %struct.JNINativeInterface_, ptr %91, i32 0, i32 95
  %93 = load ptr, ptr %92, align 8
  %94 = load ptr, ptr %5, align 8
  %95 = load ptr, ptr %6, align 8
  %96 = getelementptr inbounds %struct.RasterS_t, ptr %95, i32 0, i32 0
  %97 = load ptr, ptr %96, align 8
  %98 = load ptr, ptr @g_RasterSampleModelID, align 8
  %99 = call ptr %93(ptr noundef %94, ptr noundef %97, ptr noundef %98)
  store ptr %99, ptr %14, align 8
  %100 = load ptr, ptr %5, align 8
  %101 = load ptr, ptr %100, align 8
  %102 = getelementptr inbounds %struct.JNINativeInterface_, ptr %101, i32 0, i32 95
  %103 = load ptr, ptr %102, align 8
  %104 = load ptr, ptr %5, align 8
  %105 = load ptr, ptr %6, align 8
  %106 = getelementptr inbounds %struct.RasterS_t, ptr %105, i32 0, i32 0
  %107 = load ptr, ptr %106, align 8
  %108 = load ptr, ptr @g_RasterDataBufferID, align 8
  %109 = call ptr %103(ptr noundef %104, ptr noundef %107, ptr noundef %108)
  store ptr %109, ptr %17, align 8
  %110 = load ptr, ptr %5, align 8
  %111 = load ptr, ptr %110, align 8
  %112 = getelementptr inbounds %struct.JNINativeInterface_, ptr %111, i32 0, i32 179
  %113 = load ptr, ptr %112, align 8
  %114 = load ptr, ptr %5, align 8
  %115 = load i32, ptr %19, align 4
  %116 = call ptr %113(ptr noundef %114, i32 noundef %115)
  store ptr %116, ptr %16, align 8
  %117 = load ptr, ptr %16, align 8
  %118 = icmp eq ptr %117, null
  br i1 %118, label %119, label %126

119:                                              ; preds = %86
  %120 = load ptr, ptr %5, align 8
  %121 = load ptr, ptr %120, align 8
  %122 = getelementptr inbounds %struct.JNINativeInterface_, ptr %121, i32 0, i32 17
  %123 = load ptr, ptr %122, align 8
  %124 = load ptr, ptr %5, align 8
  call void %123(ptr noundef %124)
  %125 = load ptr, ptr %5, align 8
  call void @JNU_ThrowOutOfMemoryError(ptr noundef %125, ptr noundef @.str.14)
  store i32 -1, ptr %4, align 4
  br label %255

126:                                              ; preds = %86
  store i32 0, ptr %11, align 4
  br label %127

127:                                              ; preds = %244, %126
  %128 = load i32, ptr %11, align 4
  %129 = load i32, ptr %9, align 4
  %130 = icmp slt i32 %128, %129
  br i1 %130, label %131, label %248

131:                                              ; preds = %127
  %132 = load i32, ptr %11, align 4
  %133 = load i32, ptr %13, align 4
  %134 = add nsw i32 %132, %133
  %135 = load i32, ptr %9, align 4
  %136 = icmp sgt i32 %134, %135
  br i1 %136, label %137, label %146

137:                                              ; preds = %131
  %138 = load i32, ptr %9, align 4
  %139 = load i32, ptr %11, align 4
  %140 = sub nsw i32 %138, %139
  store i32 %140, ptr %13, align 4
  %141 = load i32, ptr %8, align 4
  %142 = load i32, ptr %10, align 4
  %143 = mul nsw i32 %141, %142
  %144 = load i32, ptr %13, align 4
  %145 = mul nsw i32 %143, %144
  store i32 %145, ptr %19, align 4
  br label %146

146:                                              ; preds = %137, %131
  %147 = load ptr, ptr %5, align 8
  %148 = load ptr, ptr %147, align 8
  %149 = getelementptr inbounds %struct.JNINativeInterface_, ptr %148, i32 0, i32 222
  %150 = load ptr, ptr %149, align 8
  %151 = load ptr, ptr %5, align 8
  %152 = load ptr, ptr %16, align 8
  %153 = call ptr %150(ptr noundef %151, ptr noundef %152, ptr noundef null)
  store ptr %153, ptr %18, align 8
  %154 = load ptr, ptr %18, align 8
  %155 = icmp eq ptr %154, null
  br i1 %155, label %156, label %163

156:                                              ; preds = %146
  %157 = load ptr, ptr %5, align 8
  %158 = load ptr, ptr %157, align 8
  %159 = getelementptr inbounds %struct.JNINativeInterface_, ptr %158, i32 0, i32 23
  %160 = load ptr, ptr %159, align 8
  %161 = load ptr, ptr %5, align 8
  %162 = load ptr, ptr %16, align 8
  call void %160(ptr noundef %161, ptr noundef %162)
  store i32 -1, ptr %4, align 4
  br label %255

163:                                              ; preds = %146
  %164 = load ptr, ptr %6, align 8
  %165 = getelementptr inbounds %struct.RasterS_t, ptr %164, i32 0, i32 19
  %166 = load i32, ptr %165, align 8
  switch i32 %166, label %209 [
    i32 1, label %167
    i32 2, label %188
  ]

167:                                              ; preds = %163
  store i32 0, ptr %12, align 4
  br label %168

168:                                              ; preds = %184, %167
  %169 = load i32, ptr %12, align 4
  %170 = load i32, ptr %19, align 4
  %171 = icmp slt i32 %169, %170
  br i1 %171, label %172, label %187

172:                                              ; preds = %168
  %173 = load ptr, ptr %20, align 8
  %174 = load i32, ptr %15, align 4
  %175 = add nsw i32 %174, 1
  store i32 %175, ptr %15, align 4
  %176 = sext i32 %174 to i64
  %177 = getelementptr inbounds i8, ptr %173, i64 %176
  %178 = load i8, ptr %177, align 1
  %179 = zext i8 %178 to i32
  %180 = load ptr, ptr %18, align 8
  %181 = load i32, ptr %12, align 4
  %182 = sext i32 %181 to i64
  %183 = getelementptr inbounds i32, ptr %180, i64 %182
  store i32 %179, ptr %183, align 4
  br label %184

184:                                              ; preds = %172
  %185 = load i32, ptr %12, align 4
  %186 = add nsw i32 %185, 1
  store i32 %186, ptr %12, align 4
  br label %168, !llvm.loop !20

187:                                              ; preds = %168
  br label %209

188:                                              ; preds = %163
  store i32 0, ptr %12, align 4
  br label %189

189:                                              ; preds = %205, %188
  %190 = load i32, ptr %12, align 4
  %191 = load i32, ptr %19, align 4
  %192 = icmp slt i32 %190, %191
  br i1 %192, label %193, label %208

193:                                              ; preds = %189
  %194 = load ptr, ptr %20, align 8
  %195 = load i32, ptr %15, align 4
  %196 = add nsw i32 %195, 1
  store i32 %196, ptr %15, align 4
  %197 = sext i32 %195 to i64
  %198 = getelementptr inbounds i16, ptr %194, i64 %197
  %199 = load i16, ptr %198, align 2
  %200 = zext i16 %199 to i32
  %201 = load ptr, ptr %18, align 8
  %202 = load i32, ptr %12, align 4
  %203 = sext i32 %202 to i64
  %204 = getelementptr inbounds i32, ptr %201, i64 %203
  store i32 %200, ptr %204, align 4
  br label %205

205:                                              ; preds = %193
  %206 = load i32, ptr %12, align 4
  %207 = add nsw i32 %206, 1
  store i32 %207, ptr %12, align 4
  br label %189, !llvm.loop !21

208:                                              ; preds = %189
  br label %209

209:                                              ; preds = %208, %187, %163
  %210 = load ptr, ptr %5, align 8
  %211 = load ptr, ptr %210, align 8
  %212 = getelementptr inbounds %struct.JNINativeInterface_, ptr %211, i32 0, i32 223
  %213 = load ptr, ptr %212, align 8
  %214 = load ptr, ptr %5, align 8
  %215 = load ptr, ptr %16, align 8
  %216 = load ptr, ptr %18, align 8
  call void %213(ptr noundef %214, ptr noundef %215, ptr noundef %216, i32 noundef 2)
  %217 = load ptr, ptr %5, align 8
  %218 = load ptr, ptr %217, align 8
  %219 = getelementptr inbounds %struct.JNINativeInterface_, ptr %218, i32 0, i32 61
  %220 = load ptr, ptr %219, align 8
  %221 = load ptr, ptr %5, align 8
  %222 = load ptr, ptr %14, align 8
  %223 = load ptr, ptr @g_SMSetPixelsMID, align 8
  %224 = load i32, ptr %11, align 4
  %225 = load i32, ptr %8, align 4
  %226 = load i32, ptr %13, align 4
  %227 = load ptr, ptr %16, align 8
  %228 = load ptr, ptr %17, align 8
  call void (ptr, ptr, ptr, ...) %220(ptr noundef %221, ptr noundef %222, ptr noundef %223, i32 noundef 0, i32 noundef %224, i32 noundef %225, i32 noundef %226, ptr noundef %227, ptr noundef %228)
  %229 = load ptr, ptr %5, align 8
  %230 = load ptr, ptr %229, align 8
  %231 = getelementptr inbounds %struct.JNINativeInterface_, ptr %230, i32 0, i32 15
  %232 = load ptr, ptr %231, align 8
  %233 = load ptr, ptr %5, align 8
  %234 = call ptr %232(ptr noundef %233)
  %235 = icmp ne ptr %234, null
  br i1 %235, label %236, label %243

236:                                              ; preds = %209
  %237 = load ptr, ptr %5, align 8
  %238 = load ptr, ptr %237, align 8
  %239 = getelementptr inbounds %struct.JNINativeInterface_, ptr %238, i32 0, i32 23
  %240 = load ptr, ptr %239, align 8
  %241 = load ptr, ptr %5, align 8
  %242 = load ptr, ptr %16, align 8
  call void %240(ptr noundef %241, ptr noundef %242)
  store i32 -1, ptr %4, align 4
  br label %255

243:                                              ; preds = %209
  br label %244

244:                                              ; preds = %243
  %245 = load i32, ptr %13, align 4
  %246 = load i32, ptr %11, align 4
  %247 = add nsw i32 %246, %245
  store i32 %247, ptr %11, align 4
  br label %127, !llvm.loop !22

248:                                              ; preds = %127
  %249 = load ptr, ptr %5, align 8
  %250 = load ptr, ptr %249, align 8
  %251 = getelementptr inbounds %struct.JNINativeInterface_, ptr %250, i32 0, i32 23
  %252 = load ptr, ptr %251, align 8
  %253 = load ptr, ptr %5, align 8
  %254 = load ptr, ptr %16, align 8
  call void %252(ptr noundef %253, ptr noundef %254)
  store i32 1, ptr %4, align 4
  br label %255

255:                                              ; preds = %248, %236, %156, %119, %85, %56, %43, %32
  %256 = load i32, ptr %4, align 4
  ret i32 %256
}