; Function Attrs: nounwind uwtable
define hidden range(i32 -1, 2) i32 @awt_setPixels(ptr noundef %0, ptr nocapture noundef readonly %1, ptr noundef readonly %2) local_unnamed_addr #0 {
  %4 = getelementptr inbounds i8, ptr %1, i64 424
  %5 = load i32, ptr %4, align 8
  %6 = getelementptr inbounds i8, ptr %1, i64 428
  %7 = load i32, ptr %6, align 4
  %8 = getelementptr inbounds i8, ptr %1, i64 460
  %9 = load i32, ptr %8, align 4
  %10 = icmp eq ptr %2, null
  br i1 %10, label %105, label %11

11:                                               ; preds = %3
  %12 = getelementptr inbounds i8, ptr %1, i64 480
  %13 = load i32, ptr %12, align 8
  %.off = add i32 %13, -1
  %switch = icmp ult i32 %.off, 2
  br i1 %switch, label %14, label %105

14:                                               ; preds = %11
  %15 = icmp sgt i32 %5, 0
  %16 = icmp sgt i32 %9, -1
  %or.cond = select i1 %15, i1 %16, i1 false
  br i1 %or.cond, label %17, label %105

17:                                               ; preds = %14
  %18 = udiv i32 2147483647, %5
  %19 = icmp ugt i32 %18, %9
  br i1 %19, label %20, label %105

20:                                               ; preds = %17
  %21 = mul nuw nsw i32 %9, %5
  %22 = icmp ugt i32 %21, 10240
  br i1 %22, label %25, label %23

23:                                               ; preds = %20
  %.rhs.trunc = trunc nuw i32 %21 to i16
  %24 = udiv i16 10240, %.rhs.trunc
  %.zext = zext nneg i16 %24 to i32
  br label %25

25:                                               ; preds = %20, %23
  %26 = phi i32 [ %.zext, %23 ], [ 1, %20 ]
  %spec.select = tail call i32 @llvm.smin.i32(i32 %26, i32 %7)
  %27 = icmp ne i32 %9, 0
  %28 = icmp sgt i32 %7, -1
  %or.cond3 = select i1 %27, i1 %28, i1 false
  br i1 %or.cond3, label %29, label %105

29:                                               ; preds = %25
  %30 = udiv i32 2147483647, %21
  %31 = icmp ugt i32 %30, %spec.select
  br i1 %31, label %32, label %105

32:                                               ; preds = %29
  %33 = mul nuw nsw i32 %spec.select, %21
  %34 = load ptr, ptr %0, align 8
  %35 = getelementptr inbounds i8, ptr %34, i64 760
  %36 = load ptr, ptr %35, align 8
  %37 = load ptr, ptr %1, align 8
  %38 = load ptr, ptr @g_RasterSampleModelID, align 8
  %39 = tail call ptr %36(ptr noundef nonnull %0, ptr noundef %37, ptr noundef %38) #8
  %40 = load ptr, ptr %0, align 8
  %41 = getelementptr inbounds i8, ptr %40, i64 760
  %42 = load ptr, ptr %41, align 8
  %43 = load ptr, ptr %1, align 8
  %44 = load ptr, ptr @g_RasterDataBufferID, align 8
  %45 = tail call ptr %42(ptr noundef nonnull %0, ptr noundef %43, ptr noundef %44) #8
  %46 = load ptr, ptr %0, align 8
  %47 = getelementptr inbounds i8, ptr %46, i64 1432
  %48 = load ptr, ptr %47, align 8
  %49 = tail call ptr %48(ptr noundef nonnull %0, i32 noundef %33) #8
  %50 = icmp eq ptr %49, null
  br i1 %50, label %51, label %.preheader117

.preheader117:                                    ; preds = %32
  %.not = icmp eq i32 %7, 0
  br i1 %.not, label %._crit_edge, label %.lr.ph128

51:                                               ; preds = %32
  %52 = load ptr, ptr %0, align 8
  %53 = getelementptr inbounds i8, ptr %52, i64 136
  %54 = load ptr, ptr %53, align 8
  tail call void %54(ptr noundef nonnull %0) #8
  tail call void @JNU_ThrowOutOfMemoryError(ptr noundef nonnull %0, ptr noundef nonnull @.str.14) #8
  br label %105

55:                                               ; preds = %.loopexit
  %56 = add nsw i32 %.2101, %.094126
  %57 = icmp slt i32 %56, %7
  br i1 %57, label %.lr.ph128, label %._crit_edge, !llvm.loop !20

.lr.ph128:                                        ; preds = %.preheader117, %55
  %.093127 = phi i32 [ %.1, %55 ], [ %33, %.preheader117 ]
  %.094126 = phi i32 [ %56, %55 ], [ 0, %.preheader117 ]
  %.097125 = phi i32 [ %.3, %55 ], [ 0, %.preheader117 ]
  %.1100124 = phi i32 [ %.2101, %55 ], [ %spec.select, %.preheader117 ]
  %58 = add nsw i32 %.094126, %.1100124
  %59 = icmp sgt i32 %58, %7
  %60 = sub nsw i32 %7, %.094126
  %61 = mul nsw i32 %60, %21
  %.2101 = select i1 %59, i32 %60, i32 %.1100124
  %.1 = select i1 %59, i32 %61, i32 %.093127
  %62 = load ptr, ptr %0, align 8
  %63 = getelementptr inbounds i8, ptr %62, i64 1776
  %64 = load ptr, ptr %63, align 8
  %65 = tail call ptr %64(ptr noundef nonnull %0, ptr noundef nonnull %49, ptr noundef null) #8
  %66 = icmp eq ptr %65, null
  br i1 %66, label %67, label %71

67:                                               ; preds = %.lr.ph128
  %68 = load ptr, ptr %0, align 8
  %69 = getelementptr inbounds i8, ptr %68, i64 184
  %70 = load ptr, ptr %69, align 8
  tail call void %70(ptr noundef nonnull %0, ptr noundef nonnull %49) #8
  br label %105

71:                                               ; preds = %.lr.ph128
  %72 = load i32, ptr %12, align 8
  switch i32 %72, label %.loopexit [
    i32 1, label %.preheader
    i32 2, label %.preheader115
  ]

.preheader115:                                    ; preds = %71
  %73 = icmp sgt i32 %.1, 0
  br i1 %73, label %.lr.ph.preheader, label %.loopexit

.lr.ph.preheader:                                 ; preds = %.preheader115
  %74 = sext i32 %.097125 to i64
  %wide.trip.count = zext nneg i32 %.1 to i64
  br label %.lr.ph

.preheader:                                       ; preds = %71
  %75 = icmp sgt i32 %.1, 0
  br i1 %75, label %.lr.ph122.preheader, label %.loopexit

.lr.ph122.preheader:                              ; preds = %.preheader
  %76 = sext i32 %.097125 to i64
  %wide.trip.count143 = zext nneg i32 %.1 to i64
  br label %.lr.ph122

.lr.ph122:                                        ; preds = %.lr.ph122.preheader, %.lr.ph122
  %indvars.iv138 = phi i64 [ %76, %.lr.ph122.preheader ], [ %indvars.iv.next139, %.lr.ph122 ]
  %indvars.iv136 = phi i64 [ 0, %.lr.ph122.preheader ], [ %indvars.iv.next137, %.lr.ph122 ]
  %indvars.iv.next139 = add nsw i64 %indvars.iv138, 1
  %77 = getelementptr inbounds i8, ptr %2, i64 %indvars.iv138
  %78 = load i8, ptr %77, align 1
  %79 = zext i8 %78 to i32
  %80 = getelementptr inbounds i32, ptr %65, i64 %indvars.iv136
  store i32 %79, ptr %80, align 4
  %indvars.iv.next137 = add nuw nsw i64 %indvars.iv136, 1
  %exitcond144.not = icmp eq i64 %indvars.iv.next137, %wide.trip.count143
  br i1 %exitcond144.not, label %.loopexit.loopexit, label %.lr.ph122, !llvm.loop !21

.lr.ph:                                           ; preds = %.lr.ph.preheader, %.lr.ph
  %indvars.iv131 = phi i64 [ %74, %.lr.ph.preheader ], [ %indvars.iv.next132, %.lr.ph ]
  %indvars.iv = phi i64 [ 0, %.lr.ph.preheader ], [ %indvars.iv.next, %.lr.ph ]
  %indvars.iv.next132 = add nsw i64 %indvars.iv131, 1
  %81 = getelementptr inbounds i16, ptr %2, i64 %indvars.iv131
  %82 = load i16, ptr %81, align 2
  %83 = zext i16 %82 to i32
  %84 = getelementptr inbounds i32, ptr %65, i64 %indvars.iv
  store i32 %83, ptr %84, align 4
  %indvars.iv.next = add nuw nsw i64 %indvars.iv, 1
  %exitcond.not = icmp eq i64 %indvars.iv.next, %wide.trip.count
  br i1 %exitcond.not, label %.loopexit.loopexit129, label %.lr.ph, !llvm.loop !22

.loopexit.loopexit:                               ; preds = %.lr.ph122
  %85 = trunc nsw i64 %indvars.iv.next139 to i32
  br label %.loopexit

.loopexit.loopexit129:                            ; preds = %.lr.ph
  %86 = trunc nsw i64 %indvars.iv.next132 to i32
  br label %.loopexit

.loopexit:                                        ; preds = %.loopexit.loopexit129, %.loopexit.loopexit, %.preheader115, %.preheader, %71
  %.3 = phi i32 [ %.097125, %71 ], [ %.097125, %.preheader ], [ %.097125, %.preheader115 ], [ %85, %.loopexit.loopexit ], [ %86, %.loopexit.loopexit129 ]
  %87 = load ptr, ptr %0, align 8
  %88 = getelementptr inbounds i8, ptr %87, i64 1784
  %89 = load ptr, ptr %88, align 8
  tail call void %89(ptr noundef nonnull %0, ptr noundef nonnull %49, ptr noundef nonnull %65, i32 noundef 2) #8
  %90 = load ptr, ptr %0, align 8
  %91 = getelementptr inbounds i8, ptr %90, i64 488
  %92 = load ptr, ptr %91, align 8
  %93 = load ptr, ptr @g_SMSetPixelsMID, align 8
  tail call void (ptr, ptr, ptr, ...) %92(ptr noundef nonnull %0, ptr noundef %39, ptr noundef %93, i32 noundef 0, i32 noundef %.094126, i32 noundef %5, i32 noundef %.2101, ptr noundef nonnull %49, ptr noundef %45) #8
  %94 = load ptr, ptr %0, align 8
  %95 = getelementptr inbounds i8, ptr %94, i64 120
  %96 = load ptr, ptr %95, align 8
  %97 = tail call ptr %96(ptr noundef nonnull %0) #8
  %.not114 = icmp eq ptr %97, null
  br i1 %.not114, label %55, label %98

98:                                               ; preds = %.loopexit
  %99 = load ptr, ptr %0, align 8
  %100 = getelementptr inbounds i8, ptr %99, i64 184
  %101 = load ptr, ptr %100, align 8
  tail call void %101(ptr noundef nonnull %0, ptr noundef nonnull %49) #8
  br label %105

._crit_edge:                                      ; preds = %55, %.preheader117
  %102 = load ptr, ptr %0, align 8
  %103 = getelementptr inbounds i8, ptr %102, i64 184
  %104 = load ptr, ptr %103, align 8
  tail call void %104(ptr noundef nonnull %0, ptr noundef nonnull %49) #8
  br label %105

105:                                              ; preds = %11, %25, %29, %14, %17, %3, %._crit_edge, %98, %67, %51
  %.0 = phi i32 [ -1, %51 ], [ -1, %67 ], [ -1, %98 ], [ 1, %._crit_edge ], [ -1, %3 ], [ -1, %11 ], [ -1, %17 ], [ -1, %14 ], [ -1, %29 ], [ -1, %25 ]
  ret i32 %.0
}